target datalayout = "e-m:e-p270:32:32-p271:32:32-p272:64:64-i64:64-i128:128-f80:128-n8:16:32:64-S128"
target triple = "x86_64-pc-linux-gnu"

%"class.llvm::StringRef" = type { ptr, i64 }

@.str = private unnamed_addr constant [3 x i8] c"PR\00", align 1
@.str.1 = private unnamed_addr constant [3 x i8] c"RO\00", align 1
@.str.2 = private unnamed_addr constant [3 x i8] c"DB\00", align 1
@.str.3 = private unnamed_addr constant [3 x i8] c"GL\00", align 1
@.str.4 = private unnamed_addr constant [3 x i8] c"XO\00", align 1
@.str.5 = private unnamed_addr constant [3 x i8] c"SV\00", align 1
@.str.6 = private unnamed_addr constant [5 x i8] c"SV64\00", align 1
@.str.7 = private unnamed_addr constant [7 x i8] c"SV3264\00", align 1
@.str.8 = private unnamed_addr constant [3 x i8] c"TI\00", align 1
@.str.9 = private unnamed_addr constant [3 x i8] c"TB\00", align 1
@.str.10 = private unnamed_addr constant [3 x i8] c"RW\00", align 1
@.str.11 = private unnamed_addr constant [4 x i8] c"TC0\00", align 1
@.str.12 = private unnamed_addr constant [3 x i8] c"TC\00", align 1
@.str.13 = private unnamed_addr constant [3 x i8] c"TD\00", align 1
@.str.14 = private unnamed_addr constant [3 x i8] c"DS\00", align 1
@.str.15 = private unnamed_addr constant [3 x i8] c"UA\00", align 1
@.str.16 = private unnamed_addr constant [3 x i8] c"BS\00", align 1
@.str.17 = private unnamed_addr constant [3 x i8] c"UC\00", align 1
@.str.18 = private unnamed_addr constant [3 x i8] c"TL\00", align 1
@.str.19 = private unnamed_addr constant [3 x i8] c"UL\00", align 1
@.str.20 = private unnamed_addr constant [3 x i8] c"TE\00", align 1
@.str.21 = private unnamed_addr constant [8 x i8] c"Unknown\00", align 1

; Function Attrs: mustprogress nounwind uwtable
define linkonce_odr hidden noundef i64 @_ZNSt11char_traitsIcE6lengthEPKc(ptr noundef %0) #0 comdat align 2 {
  %2 = alloca ptr, align 8
  store ptr %0, ptr %2, align 8
  %3 = load ptr, ptr %2, align 8
  %4 = call i64 @strlen(ptr noundef %3) #6
  ret i64 %4
}

; Function Attrs: mustprogress nounwind uwtable
define linkonce_odr hidden void @_ZN4llvm9StringRefC2EPKc(ptr noundef nonnull align 8 dereferenceable(16) %0, ptr noundef %1) unnamed_addr #0 comdat align 2 {
  %3 = alloca ptr, align 8
  %4 = alloca ptr, align 8
  store ptr %0, ptr %3, align 8
  store ptr %1, ptr %4, align 8
  %5 = load ptr, ptr %3, align 8
  %6 = getelementptr inbounds nuw %"class.llvm::StringRef", ptr %5, i32 0, i32 0
  %7 = load ptr, ptr %4, align 8
  store ptr %7, ptr %6, align 8
  %8 = getelementptr inbounds nuw %"class.llvm::StringRef", ptr %5, i32 0, i32 1
  %9 = load ptr, ptr %4, align 8
  %10 = icmp ne ptr %9, null
  br i1 %10, label %11, label %14

11:                                               ; preds = %2
  %12 = load ptr, ptr %4, align 8
  %13 = call noundef i64 @_ZNSt11char_traitsIcE6lengthEPKc(ptr noundef %12)
  br label %15

14:                                               ; preds = %2
  br label %15

15:                                               ; preds = %14, %11
  %16 = phi i64 [ %13, %11 ], [ 0, %14 ]
  store i64 %16, ptr %8, align 8
  ret void
}

; Function Attrs: mustprogress nounwind uwtable
define dso_local { ptr, i64 } @_ZN4llvm5XCOFF21getMappingClassStringENS0_19StorageMappingClassE(i8 noundef zeroext %0) #0 {
  %2 = alloca %"class.llvm::StringRef", align 8
  %3 = alloca i8, align 1
  store i8 %0, ptr %3, align 1
  %4 = load i8, ptr %3, align 1
  %5 = zext i8 %4 to i32
  switch i32 %5, label %27 [
    i32 0, label %6
    i32 1, label %7
    i32 2, label %8
    i32 6, label %9
    i32 7, label %10
    i32 8, label %11
    i32 17, label %12
    i32 18, label %13
    i32 12, label %14
    i32 13, label %15
    i32 5, label %16
    i32 15, label %17
    i32 3, label %18
    i32 16, label %19
    i32 10, label %20
    i32 4, label %21
    i32 9, label %22
    i32 11, label %23
    i32 20, label %24
    i32 21, label %25
    i32 22, label %26
  ]

6:                                                ; preds = %1
  call void @_ZN4llvm9StringRefC2EPKc(ptr noundef nonnull align 8 dereferenceable(16) %2, ptr noundef @.str)
  br label %28

7:                                                ; preds = %1
  call void @_ZN4llvm9StringRefC2EPKc(ptr noundef nonnull align 8 dereferenceable(16) %2, ptr noundef @.str.1)
  br label %28

8:                                                ; preds = %1
  call void @_ZN4llvm9StringRefC2EPKc(ptr noundef nonnull align 8 dereferenceable(16) %2, ptr noundef @.str.2)
  br label %28

9:                                                ; preds = %1
  call void @_ZN4llvm9StringRefC2EPKc(ptr noundef nonnull align 8 dereferenceable(16) %2, ptr noundef @.str.3)
  br label %28

10:                                               ; preds = %1
  call void @_ZN4llvm9StringRefC2EPKc(ptr noundef nonnull align 8 dereferenceable(16) %2, ptr noundef @.str.4)
  br label %28

11:                                               ; preds = %1
  call void @_ZN4llvm9StringRefC2EPKc(ptr noundef nonnull align 8 dereferenceable(16) %2, ptr noundef @.str.5)
  br label %28

12:                                               ; preds = %1
  call void @_ZN4llvm9StringRefC2EPKc(ptr noundef nonnull align 8 dereferenceable(16) %2, ptr noundef @.str.6)
  br label %28

13:                                               ; preds = %1
  call void @_ZN4llvm9StringRefC2EPKc(ptr noundef nonnull align 8 dereferenceable(16) %2, ptr noundef @.str.7)
  br label %28

14:                                               ; preds = %1
  call void @_ZN4llvm9StringRefC2EPKc(ptr noundef nonnull align 8 dereferenceable(16) %2, ptr noundef @.str.8)
  br label %28

15:                                               ; preds = %1
  call void @_ZN4llvm9StringRefC2EPKc(ptr noundef nonnull align 8 dereferenceable(16) %2, ptr noundef @.str.9)
  br label %28

16:                                               ; preds = %1
  call void @_ZN4llvm9StringRefC2EPKc(ptr noundef nonnull align 8 dereferenceable(16) %2, ptr noundef @.str.10)
  br label %28

17:                                               ; preds = %1
  call void @_ZN4llvm9StringRefC2EPKc(ptr noundef nonnull align 8 dereferenceable(16) %2, ptr noundef @.str.11)
  br label %28

18:                                               ; preds = %1
  call void @_ZN4llvm9StringRefC2EPKc(ptr noundef nonnull align 8 dereferenceable(16) %2, ptr noundef @.str.12)
  br label %28

19:                                               ; preds = %1
  call void @_ZN4llvm9StringRefC2EPKc(ptr noundef nonnull align 8 dereferenceable(16) %2, ptr noundef @.str.13)
  br label %28

20:                                               ; preds = %1
  call void @_ZN4llvm9StringRefC2EPKc(ptr noundef nonnull align 8 dereferenceable(16) %2, ptr noundef @.str.14)
  br label %28

21:                                               ; preds = %1
  call void @_ZN4llvm9StringRefC2EPKc(ptr noundef nonnull align 8 dereferenceable(16) %2, ptr noundef @.str.15)
  br label %28

22:                                               ; preds = %1
  call void @_ZN4llvm9StringRefC2EPKc(ptr noundef nonnull align 8 dereferenceable(16) %2, ptr noundef @.str.16)
  br label %28

23:                                               ; preds = %1
  call void @_ZN4llvm9StringRefC2EPKc(ptr noundef nonnull align 8 dereferenceable(16) %2, ptr noundef @.str.17)
  br label %28

24:                                               ; preds = %1
  call void @_ZN4llvm9StringRefC2EPKc(ptr noundef nonnull align 8 dereferenceable(16) %2, ptr noundef @.str.18)
  br label %28

25:                                               ; preds = %1
  call void @_ZN4llvm9StringRefC2EPKc(ptr noundef nonnull align 8 dereferenceable(16) %2, ptr noundef @.str.19)
  br label %28

26:                                               ; preds = %1
  call void @_ZN4llvm9StringRefC2EPKc(ptr noundef nonnull align 8 dereferenceable(16) %2, ptr noundef @.str.20)
  br label %28

27:                                               ; preds = %1
  call void @_ZN4llvm9StringRefC2EPKc(ptr noundef nonnull align 8 dereferenceable(16) %2, ptr noundef @.str.21)
  br label %28

28:                                               ; preds = %27, %26, %25, %24, %23, %22, %21, %20, %19, %18, %17, %16, %15, %14, %13, %12, %11, %10, %9, %8, %7, %6
  %29 = load { ptr, i64 }, ptr %2, align 8
  ret { ptr, i64 } %29
}