; Function Attrs: mustprogress nofree norecurse nosync nounwind willreturn memory(none) uwtable
define dso_local { ptr, i64 } @_ZN4llvm5XCOFF21getMappingClassStringENS0_19StorageMappingClassE(i8 noundef zeroext %0) local_unnamed_addr #0 {
  %2 = icmp ult i8 %0, 23
  br i1 %2, label %switch.lookup, label %5

switch.lookup:                                    ; preds = %1
  %3 = zext nneg i8 %0 to i64
  %switch.gep = getelementptr inbounds [23 x i64], ptr @switch.table._ZN4llvm5XCOFF21getMappingClassStringENS0_19StorageMappingClassE, i64 0, i64 %3
  %switch.load = load i64, ptr %switch.gep, align 8
  %4 = zext nneg i8 %0 to i64
  %switch.gep1 = getelementptr inbounds [23 x ptr], ptr @switch.table._ZN4llvm5XCOFF21getMappingClassStringENS0_19StorageMappingClassE.1, i64 0, i64 %4
  %switch.load2 = load ptr, ptr %switch.gep1, align 8
  br label %5

5:                                                ; preds = %1, %switch.lookup
  %.sroa.23.0 = phi i64 [ %switch.load, %switch.lookup ], [ 7, %1 ]
  %.sroa.0.0 = phi ptr [ %switch.load2, %switch.lookup ], [ @.str.21, %1 ]
  %.fca.0.insert = insertvalue { ptr, i64 } poison, ptr %.sroa.0.0, 0
  %.fca.1.insert = insertvalue { ptr, i64 } %.fca.0.insert, i64 %.sroa.23.0, 1
  ret { ptr, i64 } %.fca.1.insert
}